; Function Attrs: mustprogress uwtable
define dso_local void @_ZN28btSoftMultiBodyDynamicsWorld25predictUnconstraintMotionEf(ptr noundef nonnull align 8 dereferenceable(1025) %0, float noundef %1) unnamed_addr #0 align 2 personality ptr @__gxx_personality_v0 {
  %3 = alloca %class.CProfileSample, align 1
  tail call void @_ZN23btDiscreteDynamicsWorld25predictUnconstraintMotionEf(ptr noundef nonnull align 8 dereferenceable(508) %0, float noundef %1)
  call void @llvm.lifetime.start.p0(i64 1, ptr nonnull %3) #15
  call void @_ZN14CProfileSampleC1EPKc(ptr noundef nonnull align 1 dereferenceable(1) %3, ptr noundef nonnull @.str)
  %4 = getelementptr inbounds nuw i8, ptr %0, i64 1016
  %5 = load ptr, ptr %4, align 8, !tbaa !36
  %6 = load ptr, ptr %5, align 8, !tbaa !4
  %7 = getelementptr inbounds nuw i8, ptr %6, i64 48
  %8 = load ptr, ptr %7, align 8
  invoke void %8(ptr noundef nonnull align 8 dereferenceable(20) %5, float noundef %1)
          to label %9 unwind label %10

9:                                                ; preds = %2
  call void @_ZN14CProfileSampleD1Ev(ptr noundef nonnull align 1 dereferenceable(1) %3) #15
  call void @llvm.lifetime.end.p0(i64 1, ptr nonnull %3) #15
  ret void

10:                                               ; preds = %2
  %11 = landingpad { ptr, i32 }
          cleanup
  call void @_ZN14CProfileSampleD1Ev(ptr noundef nonnull align 1 dereferenceable(1) %3) #15
  call void @llvm.lifetime.end.p0(i64 1, ptr nonnull %3) #15
  resume { ptr, i32 } %11
}